target datalayout = "e-m:e-p270:32:32-p271:32:32-p272:64:64-i64:64-i128:128-f80:128-n8:16:32:64-S128"
target triple = "x86_64-pc-linux-gnu"

%"class.llvm::pdb::DbiModuleSourceFilesIterator" = type <{ %"class.llvm::StringRef", ptr, i32, i16, [2 x i8] }>
%"class.llvm::StringRef" = type { ptr, i64 }

; Function Attrs: mustprogress nounwind uwtable
define dso_local noundef zeroext i1 @_ZNK4llvm3pdb28DbiModuleSourceFilesIterator14isUniversalEndEv(ptr noundef nonnull align 8 dereferenceable(30) %0) #0 align 2 {
  %2 = alloca ptr, align 8
  store ptr %0, ptr %2, align 8
  %3 = load ptr, ptr %2, align 8
  %4 = getelementptr inbounds nuw %"class.llvm::pdb::DbiModuleSourceFilesIterator", ptr %3, i32 0, i32 1
  %5 = load ptr, ptr %4, align 8
  %6 = icmp ne ptr %5, null
  %7 = xor i1 %6, true
  ret i1 %7
}

; Function Attrs: mustprogress nounwind uwtable
define dso_local noundef zeroext i1 @_ZNK4llvm3pdb28DbiModuleSourceFilesIterator12isCompatibleERKS1_(ptr noundef nonnull align 8 dereferenceable(30) %0, ptr noundef nonnull align 8 dereferenceable(30) %1) #0 align 2 {
  %3 = alloca i1, align 1
  %4 = alloca ptr, align 8
  %5 = alloca ptr, align 8
  store ptr %0, ptr %4, align 8
  store ptr %1, ptr %5, align 8
  %6 = load ptr, ptr %4, align 8
  %7 = call noundef zeroext i1 @_ZNK4llvm3pdb28DbiModuleSourceFilesIterator14isUniversalEndEv(ptr noundef nonnull align 8 dereferenceable(30) %6)
  br i1 %7, label %11, label %8

8:                                                ; preds = %2
  %9 = load ptr, ptr %5, align 8
  %10 = call noundef zeroext i1 @_ZNK4llvm3pdb28DbiModuleSourceFilesIterator14isUniversalEndEv(ptr noundef nonnull align 8 dereferenceable(30) %9)
  br i1 %10, label %11, label %12

11:                                               ; preds = %8, %2
  store i1 true, ptr %3, align 1
  br label %19

12:                                               ; preds = %8
  %13 = getelementptr inbounds nuw %"class.llvm::pdb::DbiModuleSourceFilesIterator", ptr %6, i32 0, i32 2
  %14 = load i32, ptr %13, align 8
  %15 = load ptr, ptr %5, align 8
  %16 = getelementptr inbounds nuw %"class.llvm::pdb::DbiModuleSourceFilesIterator", ptr %15, i32 0, i32 2
  %17 = load i32, ptr %16, align 8
  %18 = icmp eq i32 %14, %17
  store i1 %18, ptr %3, align 1
  br label %19

19:                                               ; preds = %12, %11
  %20 = load i1, ptr %3, align 1
  ret i1 %20
}

; Function Attrs: mustprogress nounwind uwtable
define dso_local noundef zeroext i1 @_ZNK4llvm3pdb28DbiModuleSourceFilesIteratoreqERKS1_(ptr noundef nonnull align 8 dereferenceable(30) %0, ptr noundef nonnull align 8 dereferenceable(30) %1) #0 align 2 {
  %3 = alloca i1, align 1
  %4 = alloca ptr, align 8
  %5 = alloca ptr, align 8
  store ptr %0, ptr %4, align 8
  store ptr %1, ptr %5, align 8
  %6 = load ptr, ptr %4, align 8
  %7 = load ptr, ptr %5, align 8
  %8 = call noundef zeroext i1 @_ZNK4llvm3pdb28DbiModuleSourceFilesIterator12isCompatibleERKS1_(ptr noundef nonnull align 8 dereferenceable(30) %6, ptr noundef nonnull align 8 dereferenceable(30) %7)
  br i1 %8, label %10, label %9

9:                                                ; preds = %2
  store i1 false, ptr %3, align 1
  br label %33

10:                                               ; preds = %2
  %11 = call noundef zeroext i1 @_ZNK4llvm3pdb28DbiModuleSourceFilesIterator5isEndEv(ptr noundef nonnull align 8 dereferenceable(30) %6)
  br i1 %11, label %12, label %16

12:                                               ; preds = %10
  %13 = load ptr, ptr %5, align 8
  %14 = call noundef zeroext i1 @_ZNK4llvm3pdb28DbiModuleSourceFilesIterator5isEndEv(ptr noundef nonnull align 8 dereferenceable(30) %13)
  br i1 %14, label %15, label %16

15:                                               ; preds = %12
  store i1 true, ptr %3, align 1
  br label %33

16:                                               ; preds = %12, %10
  %17 = call noundef zeroext i1 @_ZNK4llvm3pdb28DbiModuleSourceFilesIterator5isEndEv(ptr noundef nonnull align 8 dereferenceable(30) %6)
  %18 = zext i1 %17 to i32
  %19 = load ptr, ptr %5, align 8
  %20 = call noundef zeroext i1 @_ZNK4llvm3pdb28DbiModuleSourceFilesIterator5isEndEv(ptr noundef nonnull align 8 dereferenceable(30) %19)
  %21 = zext i1 %20 to i32
  %22 = icmp ne i32 %18, %21
  br i1 %22, label %23, label %24

23:                                               ; preds = %16
  store i1 false, ptr %3, align 1
  br label %33

24:                                               ; preds = %16
  %25 = getelementptr inbounds nuw %"class.llvm::pdb::DbiModuleSourceFilesIterator", ptr %6, i32 0, i32 3
  %26 = load i16, ptr %25, align 4
  %27 = zext i16 %26 to i32
  %28 = load ptr, ptr %5, align 8
  %29 = getelementptr inbounds nuw %"class.llvm::pdb::DbiModuleSourceFilesIterator", ptr %28, i32 0, i32 3
  %30 = load i16, ptr %29, align 4
  %31 = zext i16 %30 to i32
  %32 = icmp eq i32 %27, %31
  store i1 %32, ptr %3, align 1
  br label %33

33:                                               ; preds = %24, %23, %15, %9
  %34 = load i1, ptr %3, align 1
  ret i1 %34
}