; Function Attrs: mustprogress nounwind uwtable
define dso_local noundef zeroext i1 @_ZNK4llvm3pdb28DbiModuleSourceFilesIteratoreqERKS1_(ptr nocapture noundef nonnull readonly align 8 dereferenceable(30) %0, ptr nocapture noundef nonnull readonly align 8 dereferenceable(30) %1) local_unnamed_addr #0 align 2 {
  %3 = getelementptr inbounds nuw i8, ptr %0, i64 16
  %4 = load ptr, ptr %3, align 8
  %.not.i.i = icmp eq ptr %4, null
  %5 = getelementptr inbounds nuw i8, ptr %1, i64 16
  %6 = load ptr, ptr %5, align 8
  %.not.i4.i = icmp eq ptr %6, null
  %or.cond.i = select i1 %.not.i.i, i1 true, i1 %.not.i4.i
  br i1 %or.cond.i, label %_ZNK4llvm3pdb28DbiModuleSourceFilesIterator12isCompatibleERKS1_.exit.thread, label %_ZNK4llvm3pdb28DbiModuleSourceFilesIterator12isCompatibleERKS1_.exit

_ZNK4llvm3pdb28DbiModuleSourceFilesIterator12isCompatibleERKS1_.exit: ; preds = %2
  %7 = getelementptr inbounds nuw i8, ptr %0, i64 24
  %8 = load i32, ptr %7, align 8
  %9 = getelementptr inbounds nuw i8, ptr %1, i64 24
  %10 = load i32, ptr %9, align 8
  %11 = icmp eq i32 %8, %10
  br i1 %11, label %_ZNK4llvm3pdb28DbiModuleSourceFilesIterator12isCompatibleERKS1_.exit.thread, label %25

_ZNK4llvm3pdb28DbiModuleSourceFilesIterator12isCompatibleERKS1_.exit.thread: ; preds = %2, %_ZNK4llvm3pdb28DbiModuleSourceFilesIterator12isCompatibleERKS1_.exit
  %12 = tail call noundef zeroext i1 @_ZNK4llvm3pdb28DbiModuleSourceFilesIterator5isEndEv(ptr noundef nonnull align 8 dereferenceable(30) %0)
  br i1 %12, label %13, label %15

13:                                               ; preds = %_ZNK4llvm3pdb28DbiModuleSourceFilesIterator12isCompatibleERKS1_.exit.thread
  %14 = tail call noundef zeroext i1 @_ZNK4llvm3pdb28DbiModuleSourceFilesIterator5isEndEv(ptr noundef nonnull align 8 dereferenceable(30) %1)
  br i1 %14, label %25, label %15

15:                                               ; preds = %13, %_ZNK4llvm3pdb28DbiModuleSourceFilesIterator12isCompatibleERKS1_.exit.thread
  %16 = tail call noundef zeroext i1 @_ZNK4llvm3pdb28DbiModuleSourceFilesIterator5isEndEv(ptr noundef nonnull align 8 dereferenceable(30) %0)
  %17 = tail call noundef zeroext i1 @_ZNK4llvm3pdb28DbiModuleSourceFilesIterator5isEndEv(ptr noundef nonnull align 8 dereferenceable(30) %1)
  %18 = xor i1 %16, %17
  br i1 %18, label %25, label %19

19:                                               ; preds = %15
  %20 = getelementptr inbounds nuw i8, ptr %0, i64 28
  %21 = load i16, ptr %20, align 4
  %22 = getelementptr inbounds nuw i8, ptr %1, i64 28
  %23 = load i16, ptr %22, align 4
  %24 = icmp eq i16 %21, %23
  br label %25

25:                                               ; preds = %15, %13, %_ZNK4llvm3pdb28DbiModuleSourceFilesIterator12isCompatibleERKS1_.exit, %19
  %.0 = phi i1 [ %24, %19 ], [ false, %_ZNK4llvm3pdb28DbiModuleSourceFilesIterator12isCompatibleERKS1_.exit ], [ true, %13 ], [ false, %15 ]
  ret i1 %.0
}